; ModuleID = '40/1248.c'
source_filename = "40/1248.c"
target datalayout = "e-m:e-p270:32:32-p271:32:32-p272:64:64-i64:64-f80:128-n8:16:32:64-S128"
target triple = "x86_64-pc-linux-gnu"

@.str = private unnamed_addr constant [20 x i8] c"%lf\0A%lf\0A%lf\0A%lf\0A%lf\00", align 1
@.str.1 = private unnamed_addr constant [6 x i8] c"%.4lf\00", align 1
@.str.2 = private unnamed_addr constant [14 x i8] c"Invalid input\00", align 1

; Function Attrs: noinline nounwind uwtable
define dso_local i32 @main() #0 {
  %1 = alloca i32, align 4
  %2 = alloca double, align 8
  %3 = alloca double, align 8
  %4 = alloca double, align 8
  %5 = alloca double, align 8
  %6 = alloca double, align 8
  %7 = alloca double, align 8
  %8 = alloca double, align 8
  %9 = alloca double, align 8
  store i32 0, i32* %1, align 4
  %10 = call i32 (i8*, ...) @__isoc99_scanf(i8* getelementptr inbounds ([20 x i8], [20 x i8]* @.str, i64 0, i64 0), double* %2, double* %3, double* %4, double* %5, double* %6)
  %11 = load double, double* %2, align 8
  %12 = load double, double* %3, align 8
  %13 = fadd double %11, %12
  %14 = load double, double* %4, align 8
  %15 = fadd double %13, %14
  %16 = load double, double* %5, align 8
  %17 = fadd double %15, %16
  %18 = fdiv double %17, 2.000000e+00
  store double %18, double* %7, align 8
  %19 = load double, double* %6, align 8
  %20 = fdiv double %19, 2.000000e+00
  %21 = fdiv double %20, 1.800000e+02
  %22 = fmul double %21, 0x400921FB4D12D84A
  %23 = call double @cos(double %22) #3
  %24 = load double, double* %6, align 8
  %25 = fdiv double %24, 2.000000e+00
  %26 = fdiv double %25, 1.800000e+02
  %27 = fmul double %26, 0x400921FB4D12D84A
  %28 = call double @cos(double %27) #3
  %29 = fmul double %23, %28
  store double %29, double* %8, align 8
  %30 = load double, double* %7, align 8
  %31 = load double, double* %2, align 8
  %32 = fsub double %30, %31
  %33 = load double, double* %7, align 8
  %34 = load double, double* %3, align 8
  %35 = fsub double %33, %34
  %36 = fmul double %32, %35
  %37 = load double, double* %7, align 8
  %38 = load double, double* %4, align 8
  %39 = fsub double %37, %38
  %40 = fmul double %36, %39
  %41 = load double, double* %7, align 8
  %42 = load double, double* %5, align 8
  %43 = fsub double %41, %42
  %44 = fmul double %40, %43
  %45 = load double, double* %2, align 8
  %46 = load double, double* %3, align 8
  %47 = fmul double %45, %46
  %48 = load double, double* %4, align 8
  %49 = fmul double %47, %48
  %50 = load double, double* %5, align 8
  %51 = fmul double %49, %50
  %52 = load double, double* %8, align 8
  %53 = fmul double %51, %52
  %54 = fsub double %44, %53
  %55 = call double @sqrt(double %54) #3
  store double %55, double* %9, align 8
  %56 = load double, double* %7, align 8
  %57 = load double, double* %2, align 8
  %58 = fsub double %56, %57
  %59 = load double, double* %7, align 8
  %60 = load double, double* %3, align 8
  %61 = fsub double %59, %60
  %62 = fmul double %58, %61
  %63 = load double, double* %7, align 8
  %64 = load double, double* %4, align 8
  %65 = fsub double %63, %64
  %66 = fmul double %62, %65
  %67 = load double, double* %7, align 8
  %68 = load double, double* %5, align 8
  %69 = fsub double %67, %68
  %70 = fmul double %66, %69
  %71 = load double, double* %2, align 8
  %72 = load double, double* %3, align 8
  %73 = fmul double %71, %72
  %74 = load double, double* %4, align 8
  %75 = fmul double %73, %74
  %76 = load double, double* %5, align 8
  %77 = fmul double %75, %76
  %78 = load double, double* %8, align 8
  %79 = fmul double %77, %78
  %80 = fsub double %70, %79
  %81 = fcmp ogt double %80, 0.000000e+00
  br i1 %81, label %82, label %85

82:                                               ; preds = %0
  %83 = load double, double* %9, align 8
  %84 = call i32 (i8*, ...) @printf(i8* getelementptr inbounds ([6 x i8], [6 x i8]* @.str.1, i64 0, i64 0), double %83)
  br label %87

85:                                               ; preds = %0
  %86 = call i32 (i8*, ...) @printf(i8* getelementptr inbounds ([14 x i8], [14 x i8]* @.str.2, i64 0, i64 0))
  br label %87

87:                                               ; preds = %85, %82
  ret i32 0
}

declare dso_local i32 @__isoc99_scanf(i8*, ...) #1

; Function Attrs: nounwind
declare dso_local double @cos(double) #2

; Function Attrs: nounwind
declare dso_local double @sqrt(double) #2

declare dso_local i32 @printf(i8*, ...) #1


!llvm.module.flags = !{!0}
!llvm.ident = !{!1}

!0 = !{i32 1, !"wchar_size", i32 4}
!1 = !{!"clang version 10.0.0-4ubuntu1 "}
